; Function Attrs: mustprogress nounwind memory(read, inaccessiblemem: write) uwtable
define noundef zeroext i1 @_ZNK8facebook5velox15ByteInputStream5atEndEv(ptr nocapture noundef nonnull readonly align 8 dereferenceable(40) %this) unnamed_addr #3 align 2 {
entry:
  %current_ = getelementptr inbounds i8, ptr %this, i64 32
  %0 = load ptr, ptr %current_, align 8
  %tobool.not = icmp eq ptr %0, null
  br i1 %tobool.not, label %return, label %if.end

if.end:                                           ; preds = %entry
  %position = getelementptr inbounds i8, ptr %0, i64 12
  %1 = load i32, ptr %position, align 4
  %size = getelementptr inbounds i8, ptr %0, i64 8
  %2 = load i32, ptr %size, align 8
  %cmp = icmp slt i32 %1, %2
  br i1 %cmp, label %return, label %if.end5

if.end5:                                          ; preds = %if.end
  %ranges_ = getelementptr inbounds i8, ptr %this, i64 8
  %3 = load ptr, ptr %ranges_, align 8
  %cmp7.not = icmp ult ptr %0, %3
  br i1 %cmp7.not, label %if.then12, label %land.rhs

land.rhs:                                         ; preds = %if.end5
  %_M_finish.i.i = getelementptr inbounds i8, ptr %this, i64 16
  %4 = load ptr, ptr %_M_finish.i.i, align 8
  %add.ptr.i.i = getelementptr inbounds i8, ptr %4, i64 -16
  %cmp11 = icmp ugt ptr %0, %add.ptr.i.i
  br i1 %cmp11, label %if.then12, label %if.end13

if.then12:                                        ; preds = %if.end5, %land.rhs
  tail call void @llvm.trap()
  unreachable

if.end13:                                         ; preds = %land.rhs
  %cmp17 = icmp eq ptr %0, %add.ptr.i.i
  br label %return

return:                                           ; preds = %if.end, %entry, %if.end13
  %retval.0 = phi i1 [ %cmp17, %if.end13 ], [ false, %entry ], [ false, %if.end ]
  ret i1 %retval.0
}